target datalayout = "e-m:e-p270:32:32-p271:32:32-p272:64:64-i64:64-i128:128-f80:128-n8:16:32:64-S128"
target triple = "x86_64-pc-linux-gnu"

%"class.tbb::detail::r1::rml::private_worker" = type { %"struct.std::atomic", ptr, ptr, i64, %"class.tbb::detail::r1::rml::internal::thread_monitor", i64, ptr }
%"struct.std::atomic" = type { i32 }
%"class.tbb::detail::r1::rml::internal::thread_monitor" = type { %"struct.std::atomic.0", %"class.tbb::detail::r1::binary_semaphore" }
%"struct.std::atomic.0" = type { %"struct.std::__atomic_base" }
%"struct.std::__atomic_base" = type { i8 }
%"class.tbb::detail::r1::binary_semaphore" = type { %"struct.std::atomic.1" }
%"struct.std::atomic.1" = type { %"struct.std::__atomic_base.2" }
%"struct.std::__atomic_base.2" = type { i32 }
%"class.tbb::detail::r1::rml::private_server" = type <{ %"class.tbb::detail::r1::rml::tbb_server", ptr, i32, [4 x i8], i64, %"struct.std::atomic.1", %"struct.std::atomic.1", ptr, %"struct.std::atomic.3", %"class.tbb::detail::d1::mutex", [7 x i8] }>
%"class.tbb::detail::r1::rml::tbb_server" = type { %"class.rml::server" }
%"class.rml::server" = type { %"class.rml::versioned_object" }
%"class.rml::versioned_object" = type { ptr }
%"struct.std::atomic.3" = type { %"struct.std::__atomic_base.4" }
%"struct.std::__atomic_base.4" = type { ptr }
%"class.tbb::detail::d1::mutex" = type { %"class.tbb::detail::d1::waitable_atomic" }
%"class.tbb::detail::d1::waitable_atomic" = type { %"struct.std::atomic.0" }
%"class.tbb::detail::d1::cache_aligned_allocator" = type { i8 }
%"class.tbb::detail::r1::rml::padded_private_worker" = type { %"class.tbb::detail::r1::rml::private_worker", [72 x i8] }

; Function Attrs: mustprogress nounwind sspstrong uwtable
define linkonce_odr void @_ZN3tbb6detail2r116binary_semaphoreD2Ev(ptr noundef nonnull align 4 dereferenceable(4) %0) unnamed_addr #5 comdat align 2 {
  %2 = alloca ptr, align 8
  store ptr %0, ptr %2, align 8, !tbaa !100
  ret void
}

; Function Attrs: mustprogress nounwind sspstrong uwtable
define linkonce_odr void @_ZN3tbb6detail2r13rml8internal14thread_monitorD2Ev(ptr noundef nonnull align 4 dereferenceable(8) %0) unnamed_addr #5 comdat align 2 {
  %2 = alloca ptr, align 8
  store ptr %0, ptr %2, align 8, !tbaa !57
  %3 = load ptr, ptr %2, align 8
  %4 = getelementptr inbounds nuw %"class.tbb::detail::r1::rml::internal::thread_monitor", ptr %3, i32 0, i32 1
  call void @_ZN3tbb6detail2r116binary_semaphoreD2Ev(ptr noundef nonnull align 4 dereferenceable(4) %4) #11
  ret void
}

; Function Attrs: mustprogress nounwind sspstrong uwtable
define linkonce_odr void @_ZN3rml16versioned_objectD2Ev(ptr noundef nonnull align 8 dereferenceable(8) %0) unnamed_addr #5 comdat align 2 {
  %2 = alloca ptr, align 8
  store ptr %0, ptr %2, align 8, !tbaa !109
  ret void
}

; Function Attrs: inlinehint mustprogress nounwind sspstrong uwtable
define linkonce_odr void @_ZN3tbb6detail2d014poison_pointerIPNS0_2r13rml21padded_private_workerEEEvRT_(ptr noundef nonnull align 8 dereferenceable(8) %0) #8 comdat {
  %2 = alloca ptr, align 8
  store ptr %0, ptr %2, align 8, !tbaa !80
  ret void
}

; Function Attrs: mustprogress sspstrong uwtable
define linkonce_odr void @_ZN3tbb6detail2d123cache_aligned_allocatorINS0_2r13rml21padded_private_workerEE10deallocateEPS5_m(ptr noundef nonnull align 1 dereferenceable(1) %0, ptr noundef %1, i64 noundef %2) #0 comdat align 2 {
  %4 = alloca ptr, align 8
  %5 = alloca ptr, align 8
  %6 = alloca i64, align 8
  store ptr %0, ptr %4, align 8, !tbaa !76
  store ptr %1, ptr %5, align 8, !tbaa !78
  store i64 %2, ptr %6, align 8, !tbaa !3
  %7 = load ptr, ptr %5, align 8, !tbaa !78
  call void @_ZN3tbb6detail2r124cache_aligned_deallocateEPv(ptr noundef %7)
  ret void
}

; Function Attrs: inlinehint mustprogress nounwind sspstrong uwtable
define linkonce_odr void @_ZN3tbb6detail2r13rml14private_workerD2Ev(ptr noundef nonnull align 8 dereferenceable(56) %0) unnamed_addr #8 comdat align 2 {
  %2 = alloca ptr, align 8
  store ptr %0, ptr %2, align 8, !tbaa !13
  %3 = load ptr, ptr %2, align 8
  %4 = getelementptr inbounds nuw %"class.tbb::detail::r1::rml::private_worker", ptr %3, i32 0, i32 4
  call void @_ZN3tbb6detail2r13rml8internal14thread_monitorD2Ev(ptr noundef nonnull align 4 dereferenceable(8) %4) #11
  ret void
}

; Function Attrs: mustprogress nounwind sspstrong uwtable
define void @_ZN3tbb6detail2r13rml14private_serverD2Ev(ptr noundef nonnull align 8 dereferenceable(57) %0) unnamed_addr #5 align 2 personality ptr @__gxx_personality_v0 {
  %2 = alloca ptr, align 8
  %3 = alloca i64, align 8
  %4 = alloca %"class.tbb::detail::d1::cache_aligned_allocator", align 1
  store ptr %0, ptr %2, align 8, !tbaa !46
  %5 = load ptr, ptr %2, align 8
  store ptr getelementptr inbounds inrange(-16, 64) ({ [10 x ptr] }, ptr @_ZTVN3tbb6detail2r13rml14private_serverE, i32 0, i32 0, i32 2), ptr %5, align 8, !tbaa !31
  call void @llvm.lifetime.start.p0(i64 8, ptr %3) #11
  %6 = getelementptr inbounds nuw %"class.tbb::detail::r1::rml::private_server", ptr %5, i32 0, i32 2
  %7 = load i32, ptr %6, align 8, !tbaa !64
  %8 = zext i32 %7 to i64
  store i64 %8, ptr %3, align 8, !tbaa !3
  br label %9

9:                                                ; preds = %14, %1
  %10 = load i64, ptr %3, align 8, !tbaa !3
  %11 = add i64 %10, -1
  store i64 %11, ptr %3, align 8, !tbaa !3
  %12 = icmp ne i64 %10, 0
  br i1 %12, label %14, label %13

13:                                               ; preds = %9
  call void @llvm.lifetime.end.p0(i64 8, ptr %3) #11
  br label %19

14:                                               ; preds = %9
  %15 = getelementptr inbounds nuw %"class.tbb::detail::r1::rml::private_server", ptr %5, i32 0, i32 7
  %16 = load ptr, ptr %15, align 8, !tbaa !66
  %17 = load i64, ptr %3, align 8, !tbaa !3
  %18 = getelementptr inbounds nuw %"class.tbb::detail::r1::rml::padded_private_worker", ptr %16, i64 %17
  call void @_ZN3tbb6detail2r13rml14private_workerD2Ev(ptr noundef nonnull align 8 dereferenceable(128) %18) #11
  br label %9, !llvm.loop !79

19:                                               ; preds = %13
  call void @llvm.lifetime.start.p0(i64 1, ptr %4) #11
  %20 = getelementptr inbounds nuw %"class.tbb::detail::r1::rml::private_server", ptr %5, i32 0, i32 7
  %21 = load ptr, ptr %20, align 8, !tbaa !66
  %22 = getelementptr inbounds nuw %"class.tbb::detail::r1::rml::private_server", ptr %5, i32 0, i32 2
  %23 = load i32, ptr %22, align 8, !tbaa !64
  %24 = zext i32 %23 to i64
  invoke void @_ZN3tbb6detail2d123cache_aligned_allocatorINS0_2r13rml21padded_private_workerEE10deallocateEPS5_m(ptr noundef nonnull align 1 dereferenceable(1) %4, ptr noundef %21, i64 noundef %24)
          to label %25 unwind label %28

25:                                               ; preds = %19
  call void @llvm.lifetime.end.p0(i64 1, ptr %4) #11
  %26 = getelementptr inbounds nuw %"class.tbb::detail::r1::rml::private_server", ptr %5, i32 0, i32 7
  invoke void @_ZN3tbb6detail2d014poison_pointerIPNS0_2r13rml21padded_private_workerEEEvRT_(ptr noundef nonnull align 8 dereferenceable(8) %26)
          to label %27 unwind label %28

27:                                               ; preds = %25
  call void @_ZN3rml16versioned_objectD2Ev(ptr noundef nonnull align 8 dereferenceable(8) %5) #11
  ret void

28:                                               ; preds = %25, %19
  %29 = landingpad { ptr, i32 }
          catch ptr null
  %30 = extractvalue { ptr, i32 } %29, 0
  call void @__clang_call_terminate(ptr %30) #13
  unreachable
}