; Function Attrs: mustprogress nounwind sspstrong uwtable
define void @_ZN3tbb6detail2r13rml14private_serverD2Ev(ptr noundef nonnull align 8 captures(none) dereferenceable(57) initializes((0, 8)) %0) unnamed_addr #3 align 2 personality ptr @__gxx_personality_v0 {
  store ptr getelementptr inbounds nuw inrange(-16, 64) (i8, ptr @_ZTVN3tbb6detail2r13rml14private_serverE, i64 16), ptr %0, align 8, !tbaa !23
  %2 = getelementptr inbounds nuw i8, ptr %0, i64 40
  %3 = load ptr, ptr %2, align 8, !tbaa !45
  invoke void @_ZN3tbb6detail2r124cache_aligned_deallocateEPv(ptr noundef %3)
          to label %_ZN3tbb6detail2d123cache_aligned_allocatorINS0_2r13rml21padded_private_workerEE10deallocateEPS5_m.exit unwind label %4

_ZN3tbb6detail2d123cache_aligned_allocatorINS0_2r13rml21padded_private_workerEE10deallocateEPS5_m.exit: ; preds = %1
  ret void

4:                                                ; preds = %1
  %5 = landingpad { ptr, i32 }
          catch ptr null
  %6 = extractvalue { ptr, i32 } %5, 0
  tail call void @__clang_call_terminate(ptr %6) #13
  unreachable
}